target datalayout = "e-m:e-p270:32:32-p271:32:32-p272:64:64-i64:64-i128:128-f80:128-n8:16:32:64-S128"
target triple = "x86_64-pc-linux-gnu"

%struct.Vec_Ptr_t_ = type { i32, i32, ptr }
%struct.Aig_Man_t_ = type { ptr, ptr, ptr, ptr, ptr, ptr, ptr, %struct.Aig_Obj_t_, i32, i32, i32, i32, i32, i32, [7 x i32], i32, ptr, i32, ptr, i32, ptr, i32, i32, i32, ptr, i32, i32, i32, i32, i32, ptr, ptr, i32, ptr, ptr, i32, ptr, ptr, i32, i32, i32, ptr, ptr, ptr, ptr, ptr, ptr, ptr, ptr, ptr, ptr, ptr, ptr, ptr, ptr, i32, ptr, ptr, ptr, ptr, i32, i64, i64, i64, ptr, ptr }
%struct.Aig_Obj_t_ = type { %union.anon, ptr, ptr, i64, i32, i32, %union.anon.0 }
%union.anon = type { ptr }
%union.anon.0 = type { ptr }

; Function Attrs: inlinehint nounwind uwtable
define internal ptr @Aig_Not(ptr noundef %0) #2 {
  %2 = alloca ptr, align 8
  store ptr %0, ptr %2, align 8, !tbaa !53
  %3 = load ptr, ptr %2, align 8, !tbaa !53
  %4 = ptrtoint ptr %3 to i64
  %5 = xor i64 %4, 1
  %6 = inttoptr i64 %5 to ptr
  ret ptr %6
}

; Function Attrs: inlinehint nounwind uwtable
define internal ptr @Aig_ManConst0(ptr noundef %0) #2 {
  %2 = alloca ptr, align 8
  store ptr %0, ptr %2, align 8, !tbaa !45
  %3 = load ptr, ptr %2, align 8, !tbaa !45
  %4 = getelementptr inbounds nuw %struct.Aig_Man_t_, ptr %3, i32 0, i32 6
  %5 = load ptr, ptr %4, align 8, !tbaa !57
  %6 = call ptr @Aig_Not(ptr noundef %5)
  ret ptr %6
}

; Function Attrs: inlinehint nounwind uwtable
define internal ptr @Aig_ObjChild0(ptr noundef %0) #2 {
  %2 = alloca ptr, align 8
  store ptr %0, ptr %2, align 8, !tbaa !53
  %3 = load ptr, ptr %2, align 8, !tbaa !53
  %4 = getelementptr inbounds nuw %struct.Aig_Obj_t_, ptr %3, i32 0, i32 1
  %5 = load ptr, ptr %4, align 8, !tbaa !56
  ret ptr %5
}

; Function Attrs: inlinehint nounwind uwtable
define internal ptr @Vec_PtrEntry(ptr noundef %0, i32 noundef %1) #2 {
  %3 = alloca ptr, align 8
  %4 = alloca i32, align 4
  store ptr %0, ptr %3, align 8, !tbaa !3
  store i32 %1, ptr %4, align 4, !tbaa !10
  %5 = load ptr, ptr %3, align 8, !tbaa !3
  %6 = getelementptr inbounds nuw %struct.Vec_Ptr_t_, ptr %5, i32 0, i32 2
  %7 = load ptr, ptr %6, align 8, !tbaa !23
  %8 = load i32, ptr %4, align 4, !tbaa !10
  %9 = sext i32 %8 to i64
  %10 = getelementptr inbounds ptr, ptr %7, i64 %9
  %11 = load ptr, ptr %10, align 8, !tbaa !24
  ret ptr %11
}

; Function Attrs: inlinehint nounwind uwtable
define internal i32 @Saig_ManPoNum(ptr noundef %0) #2 {
  %2 = alloca ptr, align 8
  store ptr %0, ptr %2, align 8, !tbaa !45
  %3 = load ptr, ptr %2, align 8, !tbaa !45
  %4 = getelementptr inbounds nuw %struct.Aig_Man_t_, ptr %3, i32 0, i32 10
  %5 = load i32, ptr %4, align 8, !tbaa !55
  ret i32 %5
}

; Function Attrs: nounwind uwtable
define i32 @Gia_ManCountConst0Pos(ptr noundef %0) #0 {
  %2 = alloca ptr, align 8
  %3 = alloca ptr, align 8
  %4 = alloca i32, align 4
  %5 = alloca i32, align 4
  store ptr %0, ptr %2, align 8, !tbaa !45
  call void @llvm.lifetime.start.p0(i64 8, ptr %3) #10
  call void @llvm.lifetime.start.p0(i64 4, ptr %4) #10
  call void @llvm.lifetime.start.p0(i64 4, ptr %5) #10
  store i32 0, ptr %5, align 4, !tbaa !10
  store i32 0, ptr %4, align 4, !tbaa !10
  br label %6

6:                                                ; preds = %28, %1
  %7 = load i32, ptr %4, align 4, !tbaa !10
  %8 = load ptr, ptr %2, align 8, !tbaa !45
  %9 = call i32 @Saig_ManPoNum(ptr noundef %8)
  %10 = icmp slt i32 %7, %9
  br i1 %10, label %11, label %17

11:                                               ; preds = %6
  %12 = load ptr, ptr %2, align 8, !tbaa !45
  %13 = getelementptr inbounds nuw %struct.Aig_Man_t_, ptr %12, i32 0, i32 3
  %14 = load ptr, ptr %13, align 8, !tbaa !47
  %15 = load i32, ptr %4, align 4, !tbaa !10
  %16 = call ptr @Vec_PtrEntry(ptr noundef %14, i32 noundef %15)
  store ptr %16, ptr %3, align 8, !tbaa !53
  br label %17

17:                                               ; preds = %11, %6
  %18 = phi i1 [ false, %6 ], [ true, %11 ]
  br i1 %18, label %19, label %31

19:                                               ; preds = %17
  %20 = load ptr, ptr %3, align 8, !tbaa !53
  %21 = call ptr @Aig_ObjChild0(ptr noundef %20)
  %22 = load ptr, ptr %2, align 8, !tbaa !45
  %23 = call ptr @Aig_ManConst0(ptr noundef %22)
  %24 = icmp eq ptr %21, %23
  %25 = zext i1 %24 to i32
  %26 = load i32, ptr %5, align 4, !tbaa !10
  %27 = add nsw i32 %26, %25
  store i32 %27, ptr %5, align 4, !tbaa !10
  br label %28

28:                                               ; preds = %19
  %29 = load i32, ptr %4, align 4, !tbaa !10
  %30 = add nsw i32 %29, 1
  store i32 %30, ptr %4, align 4, !tbaa !10
  br label %6, !llvm.loop !54

31:                                               ; preds = %17
  %32 = load i32, ptr %5, align 4, !tbaa !10
  call void @llvm.lifetime.end.p0(i64 4, ptr %5) #10
  call void @llvm.lifetime.end.p0(i64 4, ptr %4) #10
  call void @llvm.lifetime.end.p0(i64 8, ptr %3) #10
  ret i32 %32
}