; Function Attrs: nofree norecurse nosync nounwind memory(read, inaccessiblemem: none) uwtable
define i32 @Gia_ManCountConst0Pos(ptr noundef readonly captures(none) %0) local_unnamed_addr #2 {
  %2 = getelementptr i8, ptr %0, i64 112
  %.val9 = load i32, ptr %2, align 8, !tbaa !41
  %3 = icmp sgt i32 %.val9, 0
  br i1 %3, label %.lr.ph, label %.critedge

.lr.ph:                                           ; preds = %1
  %4 = getelementptr inbounds nuw i8, ptr %0, i64 24
  %5 = load ptr, ptr %4, align 8, !tbaa !48
  %6 = getelementptr i8, ptr %5, i64 8
  %.val = load ptr, ptr %6, align 8, !tbaa !15
  %7 = getelementptr i8, ptr %0, i64 48
  %.val11 = load ptr, ptr %7, align 8, !tbaa !49
  %8 = ptrtoint ptr %.val11 to i64
  %9 = xor i64 %8, 1
  %10 = inttoptr i64 %9 to ptr
  %wide.trip.count = zext nneg i32 %.val9 to i64
  br label %11

11:                                               ; preds = %.lr.ph, %11
  %indvars.iv = phi i64 [ 0, %.lr.ph ], [ %indvars.iv.next, %11 ]
  %.013 = phi i32 [ 0, %.lr.ph ], [ %17, %11 ]
  %12 = getelementptr inbounds nuw ptr, ptr %.val, i64 %indvars.iv
  %13 = load ptr, ptr %12, align 8, !tbaa !16
  %14 = getelementptr i8, ptr %13, i64 8
  %.val10 = load ptr, ptr %14, align 8, !tbaa !50
  %15 = icmp eq ptr %.val10, %10
  %16 = zext i1 %15 to i32
  %17 = add nuw nsw i32 %.013, %16
  %indvars.iv.next = add nuw nsw i64 %indvars.iv, 1
  %exitcond.not = icmp eq i64 %indvars.iv.next, %wide.trip.count
  br i1 %exitcond.not, label %.critedge, label %11, !llvm.loop !51

.critedge:                                        ; preds = %11, %1
  %.0.lcssa = phi i32 [ 0, %1 ], [ %17, %11 ]
  ret i32 %.0.lcssa
}